; Function Attrs: mustprogress nofree norecurse nosync nounwind willreturn memory(read, argmem: readwrite, inaccessiblemem: none) uwtable
define internal fastcc noundef zeroext i1 @_ZN6icu_7717double_conversionL7AdvanceIPKtEEbPT_tiRS4_(ptr noundef nonnull captures(none) %0, i16 noundef zeroext %1, i32 noundef range(i32 10, 17) %2, ptr readnone %.0.val) unnamed_addr #2 {
  %4 = icmp eq i16 %1, 0
  %5 = load ptr, ptr %0, align 8, !tbaa !38
  br i1 %4, label %6, label %9

6:                                                ; preds = %3
  %7 = getelementptr inbounds nuw i8, ptr %5, i64 2
  store ptr %7, ptr %0, align 8, !tbaa !38
  %8 = icmp eq ptr %7, %.0.val
  br label %_ZN6icu_7717double_conversionL7isDigitEii.exit30.thread2

9:                                                ; preds = %3
  %10 = load i16, ptr %5, align 2, !tbaa !34
  %11 = zext i16 %10 to i32
  %12 = add i16 %10, -48
  %or.cond.i = icmp ult i16 %12, 10
  %13 = add nuw nsw i32 %2, 48
  %14 = icmp samesign ugt i32 %13, %11
  %or.cond19.i = select i1 %or.cond.i, i1 %14, i1 false
  br i1 %or.cond19.i, label %_ZN6icu_7717double_conversionL7isDigitEii.exit.thread, label %15

15:                                               ; preds = %9
  %16 = icmp samesign ugt i32 %2, 10
  %17 = icmp ugt i16 %10, 96
  %or.cond3.i = and i1 %16, %17
  %18 = add nuw nsw i32 %2, 87
  %19 = icmp samesign ugt i32 %18, %11
  %or.cond21.i = select i1 %or.cond3.i, i1 %19, i1 false
  br i1 %or.cond21.i, label %_ZN6icu_7717double_conversionL7isDigitEii.exit.thread, label %20

20:                                               ; preds = %15
  %21 = icmp ugt i16 %10, 64
  %or.cond5.i = and i1 %16, %21
  %22 = add nuw nsw i32 %2, 55
  %23 = icmp samesign ugt i32 %22, %11
  %or.cond = select i1 %or.cond5.i, i1 %23, i1 false
  br i1 %or.cond, label %_ZN6icu_7717double_conversionL7isDigitEii.exit.thread, label %_ZN6icu_7717double_conversionL7isDigitEii.exit.thread1

_ZN6icu_7717double_conversionL7isDigitEii.exit.thread1: ; preds = %20
  %24 = getelementptr inbounds nuw i8, ptr %5, i64 2
  store ptr %24, ptr %0, align 8, !tbaa !38
  %25 = icmp eq ptr %24, %.0.val
  br label %_ZN6icu_7717double_conversionL7isDigitEii.exit30.thread2

_ZN6icu_7717double_conversionL7isDigitEii.exit.thread: ; preds = %20, %15, %9
  %26 = getelementptr inbounds nuw i8, ptr %5, i64 2
  store ptr %26, ptr %0, align 8, !tbaa !38
  %27 = icmp eq ptr %26, %.0.val
  br i1 %27, label %_ZN6icu_7717double_conversionL7isDigitEii.exit30.thread2, label %28

28:                                               ; preds = %_ZN6icu_7717double_conversionL7isDigitEii.exit.thread
  %29 = getelementptr inbounds nuw i8, ptr %5, i64 4
  %30 = icmp eq ptr %29, %.0.val
  br i1 %30, label %_ZN6icu_7717double_conversionL7isDigitEii.exit30.thread2, label %31

31:                                               ; preds = %28
  %32 = load i16, ptr %26, align 2, !tbaa !34
  %33 = icmp eq i16 %32, %1
  br i1 %33, label %34, label %_ZN6icu_7717double_conversionL7isDigitEii.exit30.thread2

34:                                               ; preds = %31
  %35 = load i16, ptr %29, align 2, !tbaa !34
  %36 = zext i16 %35 to i32
  %37 = add i16 %35, -48
  %or.cond.i25 = icmp ult i16 %37, 10
  %38 = icmp samesign ugt i32 %13, %36
  %or.cond19.i26 = select i1 %or.cond.i25, i1 %38, i1 false
  br i1 %or.cond19.i26, label %_ZN6icu_7717double_conversionL7isDigitEii.exit30.thread, label %39

39:                                               ; preds = %34
  %40 = icmp samesign ugt i32 %2, 10
  %41 = icmp ugt i16 %35, 96
  %or.cond3.i27 = and i1 %40, %41
  %42 = add nuw nsw i32 %2, 87
  %43 = icmp samesign ugt i32 %42, %36
  %or.cond21.i28 = select i1 %or.cond3.i27, i1 %43, i1 false
  br i1 %or.cond21.i28, label %_ZN6icu_7717double_conversionL7isDigitEii.exit30.thread, label %44

44:                                               ; preds = %39
  %45 = icmp ugt i16 %35, 64
  %or.cond5.i29 = and i1 %40, %45
  %46 = add nuw nsw i32 %2, 55
  %47 = icmp samesign ugt i32 %46, %36
  %or.cond5 = select i1 %or.cond5.i29, i1 %47, i1 false
  br i1 %or.cond5, label %_ZN6icu_7717double_conversionL7isDigitEii.exit30.thread, label %_ZN6icu_7717double_conversionL7isDigitEii.exit30.thread2

_ZN6icu_7717double_conversionL7isDigitEii.exit30.thread: ; preds = %44, %39, %34
  store ptr %29, ptr %0, align 8, !tbaa !38
  br label %_ZN6icu_7717double_conversionL7isDigitEii.exit30.thread2

_ZN6icu_7717double_conversionL7isDigitEii.exit30.thread2: ; preds = %31, %_ZN6icu_7717double_conversionL7isDigitEii.exit30.thread, %44, %28, %_ZN6icu_7717double_conversionL7isDigitEii.exit.thread, %_ZN6icu_7717double_conversionL7isDigitEii.exit.thread1, %6
  %.0 = phi i1 [ %8, %6 ], [ %25, %_ZN6icu_7717double_conversionL7isDigitEii.exit.thread1 ], [ true, %_ZN6icu_7717double_conversionL7isDigitEii.exit.thread ], [ false, %28 ], [ false, %44 ], [ false, %_ZN6icu_7717double_conversionL7isDigitEii.exit30.thread ], [ false, %31 ]
  ret i1 %.0
}